; Function Attrs: mustprogress nofree norecurse nosync nounwind willreturn memory(read, inaccessiblemem: none) uwtable
define hidden noundef zeroext i1 @_ZN3smt10theory_str18is_concat_eq_type5EP4exprS2_(ptr noundef nonnull readonly align 8 captures(none) dereferenceable(1800) %0, ptr noundef readonly captures(none) %1, ptr noundef readonly captures(none) %2) local_unnamed_addr #13 align 2 {
  %4 = getelementptr inbounds nuw i8, ptr %1, i64 32
  %5 = load ptr, ptr %4, align 8, !tbaa !337
  %6 = getelementptr inbounds nuw i8, ptr %1, i64 40
  %7 = load ptr, ptr %6, align 8, !tbaa !337
  %8 = getelementptr inbounds nuw i8, ptr %2, i64 32
  %9 = load ptr, ptr %8, align 8, !tbaa !337
  %10 = getelementptr inbounds nuw i8, ptr %2, i64 40
  %11 = load ptr, ptr %10, align 8, !tbaa !337
  %12 = getelementptr inbounds nuw i8, ptr %0, i64 144
  %13 = load i32, ptr %12, align 8, !tbaa !164
  %14 = getelementptr inbounds nuw i8, ptr %5, i64 4
  %15 = load i32, ptr %14, align 4
  %16 = and i32 %15, 65535
  %17 = icmp eq i32 %16, 0
  br i1 %17, label %18, label %_ZNK8seq_util3str9is_stringEPK4expr.exit.thread

18:                                               ; preds = %3
  %19 = getelementptr inbounds nuw i8, ptr %5, i64 16
  %20 = load ptr, ptr %19, align 8, !tbaa !854
  %21 = getelementptr inbounds nuw i8, ptr %20, i64 24
  %22 = load ptr, ptr %21, align 8, !tbaa !855
  %.not.i.i.i.i = icmp eq ptr %22, null
  br i1 %.not.i.i.i.i, label %_ZNK8seq_util3str9is_stringEPK4expr.exit.thread, label %_ZNK8seq_util3str9is_stringEPK4expr.exit

_ZNK8seq_util3str9is_stringEPK4expr.exit:         ; preds = %18
  %23 = load i32, ptr %22, align 8, !tbaa !858
  %24 = icmp eq i32 %23, %13
  %25 = getelementptr inbounds nuw i8, ptr %22, i64 4
  %26 = load i32, ptr %25, align 4
  %27 = icmp eq i32 %26, 41
  %28 = select i1 %24, i1 %27, i1 false
  br i1 %28, label %_ZNK8seq_util3str9is_stringEPK4expr.exit11.thread, label %_ZNK8seq_util3str9is_stringEPK4expr.exit.thread

_ZNK8seq_util3str9is_stringEPK4expr.exit.thread:  ; preds = %18, %3, %_ZNK8seq_util3str9is_stringEPK4expr.exit
  %29 = getelementptr inbounds nuw i8, ptr %7, i64 4
  %30 = load i32, ptr %29, align 4
  %31 = and i32 %30, 65535
  %32 = icmp eq i32 %31, 0
  br i1 %32, label %33, label %_ZNK8seq_util3str9is_stringEPK4expr.exit11.thread

33:                                               ; preds = %_ZNK8seq_util3str9is_stringEPK4expr.exit.thread
  %34 = getelementptr inbounds nuw i8, ptr %7, i64 16
  %35 = load ptr, ptr %34, align 8, !tbaa !854
  %36 = getelementptr inbounds nuw i8, ptr %35, i64 24
  %37 = load ptr, ptr %36, align 8, !tbaa !855
  %.not.i.i.i.i10 = icmp eq ptr %37, null
  br i1 %.not.i.i.i.i10, label %_ZNK8seq_util3str9is_stringEPK4expr.exit11.thread, label %_ZNK8seq_util3str9is_stringEPK4expr.exit11

_ZNK8seq_util3str9is_stringEPK4expr.exit11:       ; preds = %33
  %38 = load i32, ptr %37, align 8, !tbaa !858
  %39 = icmp eq i32 %38, %13
  %40 = getelementptr inbounds nuw i8, ptr %37, i64 4
  %41 = load i32, ptr %40, align 4
  %42 = icmp eq i32 %41, 41
  %43 = select i1 %39, i1 %42, i1 false
  br i1 %43, label %44, label %_ZNK8seq_util3str9is_stringEPK4expr.exit11.thread

44:                                               ; preds = %_ZNK8seq_util3str9is_stringEPK4expr.exit11
  %45 = getelementptr inbounds nuw i8, ptr %9, i64 4
  %46 = load i32, ptr %45, align 4
  %47 = and i32 %46, 65535
  %48 = icmp eq i32 %47, 0
  br i1 %48, label %49, label %_ZNK8seq_util3str9is_stringEPK4expr.exit13.thread

49:                                               ; preds = %44
  %50 = getelementptr inbounds nuw i8, ptr %9, i64 16
  %51 = load ptr, ptr %50, align 8, !tbaa !854
  %52 = getelementptr inbounds nuw i8, ptr %51, i64 24
  %53 = load ptr, ptr %52, align 8, !tbaa !855
  %.not.i.i.i.i12 = icmp eq ptr %53, null
  br i1 %.not.i.i.i.i12, label %_ZNK8seq_util3str9is_stringEPK4expr.exit13.thread, label %_ZNK8seq_util3str9is_stringEPK4expr.exit13

_ZNK8seq_util3str9is_stringEPK4expr.exit13:       ; preds = %49
  %54 = load i32, ptr %53, align 8, !tbaa !858
  %55 = icmp eq i32 %54, %13
  %56 = getelementptr inbounds nuw i8, ptr %53, i64 4
  %57 = load i32, ptr %56, align 4
  %58 = icmp eq i32 %57, 41
  %59 = select i1 %55, i1 %58, i1 false
  br i1 %59, label %_ZNK8seq_util3str9is_stringEPK4expr.exit11.thread, label %_ZNK8seq_util3str9is_stringEPK4expr.exit13.thread

_ZNK8seq_util3str9is_stringEPK4expr.exit13.thread: ; preds = %49, %44, %_ZNK8seq_util3str9is_stringEPK4expr.exit13
  %60 = getelementptr inbounds nuw i8, ptr %11, i64 4
  %61 = load i32, ptr %60, align 4
  %62 = and i32 %61, 65535
  %63 = icmp eq i32 %62, 0
  br i1 %63, label %64, label %_ZNK8seq_util3str9is_stringEPK4expr.exit11.thread

64:                                               ; preds = %_ZNK8seq_util3str9is_stringEPK4expr.exit13.thread
  %65 = getelementptr inbounds nuw i8, ptr %11, i64 16
  %66 = load ptr, ptr %65, align 8, !tbaa !854
  %67 = getelementptr inbounds nuw i8, ptr %66, i64 24
  %68 = load ptr, ptr %67, align 8, !tbaa !855
  %.not.i.i.i.i14 = icmp eq ptr %68, null
  br i1 %.not.i.i.i.i14, label %_ZNK8seq_util3str9is_stringEPK4expr.exit11.thread, label %_ZNK8seq_util3str9is_stringEPK4expr.exit15

_ZNK8seq_util3str9is_stringEPK4expr.exit15:       ; preds = %64
  %69 = load i32, ptr %68, align 8, !tbaa !858
  %70 = icmp eq i32 %69, %13
  %71 = getelementptr inbounds nuw i8, ptr %68, i64 4
  %72 = load i32, ptr %71, align 4
  %73 = icmp eq i32 %72, 41
  %74 = select i1 %70, i1 %73, i1 false
  br i1 %74, label %75, label %_ZNK8seq_util3str9is_stringEPK4expr.exit11.thread

_ZNK8seq_util3str9is_stringEPK4expr.exit11.thread: ; preds = %64, %_ZNK8seq_util3str9is_stringEPK4expr.exit13.thread, %33, %_ZNK8seq_util3str9is_stringEPK4expr.exit.thread, %_ZNK8seq_util3str9is_stringEPK4expr.exit15, %_ZNK8seq_util3str9is_stringEPK4expr.exit13, %_ZNK8seq_util3str9is_stringEPK4expr.exit11, %_ZNK8seq_util3str9is_stringEPK4expr.exit
  br label %75

75:                                               ; preds = %_ZNK8seq_util3str9is_stringEPK4expr.exit15, %_ZNK8seq_util3str9is_stringEPK4expr.exit11.thread
  %.0 = phi i1 [ false, %_ZNK8seq_util3str9is_stringEPK4expr.exit11.thread ], [ true, %_ZNK8seq_util3str9is_stringEPK4expr.exit15 ]
  ret i1 %.0
}